target datalayout = "e-m:e-p270:32:32-p271:32:32-p272:64:64-i64:64-i128:128-f80:128-n8:16:32:64-S128"
target triple = "x86_64-pc-linux-gnu"

%struct.PJconsts = type { ptr, ptr, ptr, ptr, ptr, ptr, ptr, ptr, ptr, ptr, ptr, ptr, i32, ptr, ptr, ptr, ptr, ptr, ptr, ptr, ptr, double, double, double, double, double, double, double, double, double, double, double, double, double, double, double, double, double, double, double, double, double, double, i32, i32, i32, i32, i32, i32, i32, i32, i32, i32, i32, ptr, ptr, ptr, ptr, ptr, ptr, double, double, double, double, double, double, double, double, double, double, double, i32, [7 x double], i32, ptr, ptr, double, double, i32, [4 x i8], %"class.std::shared_ptr", i8, double, i8, %"class.std::__cxx11::basic_string", %"class.std::__cxx11::basic_string", %"class.std::__cxx11::basic_string", i8, %"class.std::vector", i32, %"class.std::vector.3", i32, i8, i8, i8, ptr }
%"class.std::shared_ptr" = type { %"class.std::__shared_ptr" }
%"class.std::__shared_ptr" = type { ptr, %"class.std::__shared_count" }
%"class.std::__shared_count" = type { ptr }
%"class.std::__cxx11::basic_string" = type { %"struct.std::__cxx11::basic_string<char>::_Alloc_hider", i64, %union.anon }
%"struct.std::__cxx11::basic_string<char>::_Alloc_hider" = type { ptr }
%union.anon = type { i64, [8 x i8] }
%"class.std::vector" = type { %"struct.std::_Vector_base" }
%"struct.std::_Vector_base" = type { %"struct.std::_Vector_base<osgeo::proj::operation::GridDescription, std::allocator<osgeo::proj::operation::GridDescription>>::_Vector_impl" }
%"struct.std::_Vector_base<osgeo::proj::operation::GridDescription, std::allocator<osgeo::proj::operation::GridDescription>>::_Vector_impl" = type { %"struct.std::_Vector_base<osgeo::proj::operation::GridDescription, std::allocator<osgeo::proj::operation::GridDescription>>::_Vector_impl_data" }
%"struct.std::_Vector_base<osgeo::proj::operation::GridDescription, std::allocator<osgeo::proj::operation::GridDescription>>::_Vector_impl_data" = type { ptr, ptr, ptr }
%"class.std::vector.3" = type { %"struct.std::_Vector_base.4" }
%"struct.std::_Vector_base.4" = type { %"struct.std::_Vector_base<PJCoordOperation, std::allocator<PJCoordOperation>>::_Vector_impl" }
%"struct.std::_Vector_base<PJCoordOperation, std::allocator<PJCoordOperation>>::_Vector_impl" = type { %"struct.std::_Vector_base<PJCoordOperation, std::allocator<PJCoordOperation>>::_Vector_impl_data" }
%"struct.std::_Vector_base<PJCoordOperation, std::allocator<PJCoordOperation>>::_Vector_impl_data" = type { ptr, ptr, ptr }
%union.PROJVALUE = type { double }
%"struct.(anonymous namespace)::pj_urm5" = type { double, double, double, double }

@.str.1 = private unnamed_addr constant [3 x i8] c"tn\00", align 1
@.str.2 = private unnamed_addr constant [21 x i8] c"Missing parameter n.\00", align 1
@.str.3 = private unnamed_addr constant [3 x i8] c"dn\00", align 1
@.str.4 = private unnamed_addr constant [50 x i8] c"Invalid value for n: it should be in ]0,1] range.\00", align 1
@.str.5 = private unnamed_addr constant [3 x i8] c"dq\00", align 1
@.str.6 = private unnamed_addr constant [7 x i8] c"ralpha\00", align 1
@.str.7 = private unnamed_addr constant [61 x i8] c"Invalid value for n / alpha: n * sin(|alpha|) should be < 1.\00", align 1

; Function Attrs: mustprogress uwtable
define hidden noundef ptr @_Z33pj_projection_specific_setup_urm5P8PJconsts(ptr noundef %0) #0 {
  %2 = alloca ptr, align 8
  %3 = alloca ptr, align 8
  %4 = alloca double, align 8
  %5 = alloca double, align 8
  %6 = alloca ptr, align 8
  %7 = alloca i32, align 4
  %8 = alloca %union.PROJVALUE, align 8
  %9 = alloca %union.PROJVALUE, align 8
  %10 = alloca %union.PROJVALUE, align 8
  %11 = alloca %union.PROJVALUE, align 8
  %12 = alloca double, align 8
  store ptr %0, ptr %3, align 8, !tbaa !3
  call void @llvm.lifetime.start.p0(i64 8, ptr %4) #7
  call void @llvm.lifetime.start.p0(i64 8, ptr %5) #7
  call void @llvm.lifetime.start.p0(i64 8, ptr %6) #7
  %13 = call noalias ptr @calloc(i64 noundef 1, i64 noundef 32) #8
  store ptr %13, ptr %6, align 8, !tbaa !41
  %14 = load ptr, ptr %6, align 8, !tbaa !41
  %15 = icmp eq ptr null, %14
  br i1 %15, label %16, label %19

16:                                               ; preds = %1
  %17 = load ptr, ptr %3, align 8, !tbaa !3
  %18 = call noundef ptr @_Z21pj_default_destructorP8PJconstsi(ptr noundef %17, i32 noundef 4096)
  store ptr %18, ptr %2, align 8
  store i32 1, ptr %7, align 4
  br label %127

19:                                               ; preds = %1
  %20 = load ptr, ptr %6, align 8, !tbaa !41
  %21 = load ptr, ptr %3, align 8, !tbaa !3
  %22 = getelementptr inbounds nuw %struct.PJconsts, ptr %21, i32 0, i32 11
  store ptr %20, ptr %22, align 8, !tbaa !43
  call void @llvm.lifetime.start.p0(i64 8, ptr %8) #7
  %23 = load ptr, ptr %3, align 8, !tbaa !3
  %24 = getelementptr inbounds nuw %struct.PJconsts, ptr %23, i32 0, i32 0
  %25 = load ptr, ptr %24, align 8, !tbaa !44
  %26 = load ptr, ptr %3, align 8, !tbaa !3
  %27 = getelementptr inbounds nuw %struct.PJconsts, ptr %26, i32 0, i32 3
  %28 = load ptr, ptr %27, align 8, !tbaa !45
  %29 = call i64 @_Z8pj_paramP6pj_ctxP8ARG_listPKc(ptr noundef %25, ptr noundef %28, ptr noundef @.str.1)
  %30 = getelementptr inbounds nuw %union.PROJVALUE, ptr %8, i32 0, i32 0
  store i64 %29, ptr %30, align 8
  %31 = load i32, ptr %8, align 8, !tbaa !46
  %32 = icmp ne i32 %31, 0
  %33 = xor i1 %32, true
  call void @llvm.lifetime.end.p0(i64 8, ptr %8) #7
  br i1 %33, label %34, label %38

34:                                               ; preds = %19
  %35 = load ptr, ptr %3, align 8, !tbaa !3
  call void (ptr, ptr, ...) @_Z14proj_log_errorPK8PJconstsPKcz(ptr noundef %35, ptr noundef @.str.2)
  %36 = load ptr, ptr %3, align 8, !tbaa !3
  %37 = call noundef ptr @_Z21pj_default_destructorP8PJconstsi(ptr noundef %36, i32 noundef 1026)
  store ptr %37, ptr %2, align 8
  store i32 1, ptr %7, align 4
  br label %127

38:                                               ; preds = %19
  call void @llvm.lifetime.start.p0(i64 8, ptr %9) #7
  %39 = load ptr, ptr %3, align 8, !tbaa !3
  %40 = getelementptr inbounds nuw %struct.PJconsts, ptr %39, i32 0, i32 0
  %41 = load ptr, ptr %40, align 8, !tbaa !44
  %42 = load ptr, ptr %3, align 8, !tbaa !3
  %43 = getelementptr inbounds nuw %struct.PJconsts, ptr %42, i32 0, i32 3
  %44 = load ptr, ptr %43, align 8, !tbaa !45
  %45 = call i64 @_Z8pj_paramP6pj_ctxP8ARG_listPKc(ptr noundef %41, ptr noundef %44, ptr noundef @.str.3)
  %46 = getelementptr inbounds nuw %union.PROJVALUE, ptr %9, i32 0, i32 0
  store i64 %45, ptr %46, align 8
  %47 = load double, ptr %9, align 8, !tbaa !46
  %48 = load ptr, ptr %6, align 8, !tbaa !41
  %49 = getelementptr inbounds nuw %"struct.(anonymous namespace)::pj_urm5", ptr %48, i32 0, i32 3
  store double %47, ptr %49, align 8, !tbaa !47
  call void @llvm.lifetime.end.p0(i64 8, ptr %9) #7
  %50 = load ptr, ptr %6, align 8, !tbaa !41
  %51 = getelementptr inbounds nuw %"struct.(anonymous namespace)::pj_urm5", ptr %50, i32 0, i32 3
  %52 = load double, ptr %51, align 8, !tbaa !47
  %53 = fcmp ole double %52, 0.000000e+00
  br i1 %53, label %59, label %54

54:                                               ; preds = %38
  %55 = load ptr, ptr %6, align 8, !tbaa !41
  %56 = getelementptr inbounds nuw %"struct.(anonymous namespace)::pj_urm5", ptr %55, i32 0, i32 3
  %57 = load double, ptr %56, align 8, !tbaa !47
  %58 = fcmp ogt double %57, 1.000000e+00
  br i1 %58, label %59, label %63

59:                                               ; preds = %54, %38
  %60 = load ptr, ptr %3, align 8, !tbaa !3
  call void (ptr, ptr, ...) @_Z14proj_log_errorPK8PJconstsPKcz(ptr noundef %60, ptr noundef @.str.4)
  %61 = load ptr, ptr %3, align 8, !tbaa !3
  %62 = call noundef ptr @_Z21pj_default_destructorP8PJconstsi(ptr noundef %61, i32 noundef 1027)
  store ptr %62, ptr %2, align 8
  store i32 1, ptr %7, align 4
  br label %127

63:                                               ; preds = %54
  call void @llvm.lifetime.start.p0(i64 8, ptr %10) #7
  %64 = load ptr, ptr %3, align 8, !tbaa !3
  %65 = getelementptr inbounds nuw %struct.PJconsts, ptr %64, i32 0, i32 0
  %66 = load ptr, ptr %65, align 8, !tbaa !44
  %67 = load ptr, ptr %3, align 8, !tbaa !3
  %68 = getelementptr inbounds nuw %struct.PJconsts, ptr %67, i32 0, i32 3
  %69 = load ptr, ptr %68, align 8, !tbaa !45
  %70 = call i64 @_Z8pj_paramP6pj_ctxP8ARG_listPKc(ptr noundef %66, ptr noundef %69, ptr noundef @.str.5)
  %71 = getelementptr inbounds nuw %union.PROJVALUE, ptr %10, i32 0, i32 0
  store i64 %70, ptr %71, align 8
  %72 = load double, ptr %10, align 8, !tbaa !46
  %73 = fdiv double %72, 3.000000e+00
  %74 = load ptr, ptr %6, align 8, !tbaa !41
  %75 = getelementptr inbounds nuw %"struct.(anonymous namespace)::pj_urm5", ptr %74, i32 0, i32 2
  store double %73, ptr %75, align 8, !tbaa !49
  call void @llvm.lifetime.end.p0(i64 8, ptr %10) #7
  call void @llvm.lifetime.start.p0(i64 8, ptr %11) #7
  %76 = load ptr, ptr %3, align 8, !tbaa !3
  %77 = getelementptr inbounds nuw %struct.PJconsts, ptr %76, i32 0, i32 0
  %78 = load ptr, ptr %77, align 8, !tbaa !44
  %79 = load ptr, ptr %3, align 8, !tbaa !3
  %80 = getelementptr inbounds nuw %struct.PJconsts, ptr %79, i32 0, i32 3
  %81 = load ptr, ptr %80, align 8, !tbaa !45
  %82 = call i64 @_Z8pj_paramP6pj_ctxP8ARG_listPKc(ptr noundef %78, ptr noundef %81, ptr noundef @.str.6)
  %83 = getelementptr inbounds nuw %union.PROJVALUE, ptr %11, i32 0, i32 0
  store i64 %82, ptr %83, align 8
  %84 = load double, ptr %11, align 8, !tbaa !46
  store double %84, ptr %4, align 8, !tbaa !50
  call void @llvm.lifetime.end.p0(i64 8, ptr %11) #7
  %85 = load ptr, ptr %6, align 8, !tbaa !41
  %86 = getelementptr inbounds nuw %"struct.(anonymous namespace)::pj_urm5", ptr %85, i32 0, i32 3
  %87 = load double, ptr %86, align 8, !tbaa !47
  %88 = load double, ptr %4, align 8, !tbaa !50
  %89 = call double @sin(double noundef %88) #7, !tbaa !51
  %90 = fmul double %87, %89
  store double %90, ptr %5, align 8, !tbaa !50
  call void @llvm.lifetime.start.p0(i64 8, ptr %12) #7
  %91 = load double, ptr %5, align 8, !tbaa !50
  %92 = load double, ptr %5, align 8, !tbaa !50
  %93 = fneg double %91
  %94 = call double @llvm.fmuladd.f64(double %93, double %92, double 1.000000e+00)
  %95 = call double @sqrt(double noundef %94) #7, !tbaa !51
  store double %95, ptr %12, align 8, !tbaa !50
  %96 = load double, ptr %12, align 8, !tbaa !50
  %97 = fcmp oeq double %96, 0.000000e+00
  br i1 %97, label %98, label %102

98:                                               ; preds = %63
  %99 = load ptr, ptr %3, align 8, !tbaa !3
  call void (ptr, ptr, ...) @_Z14proj_log_errorPK8PJconstsPKcz(ptr noundef %99, ptr noundef @.str.7)
  %100 = load ptr, ptr %3, align 8, !tbaa !3
  %101 = call noundef ptr @_Z21pj_default_destructorP8PJconstsi(ptr noundef %100, i32 noundef 1027)
  store ptr %101, ptr %2, align 8
  store i32 1, ptr %7, align 4
  br label %126

102:                                              ; preds = %63
  %103 = load double, ptr %4, align 8, !tbaa !50
  %104 = call double @cos(double noundef %103) #7, !tbaa !51
  %105 = load double, ptr %12, align 8, !tbaa !50
  %106 = fdiv double %104, %105
  %107 = load ptr, ptr %6, align 8, !tbaa !41
  %108 = getelementptr inbounds nuw %"struct.(anonymous namespace)::pj_urm5", ptr %107, i32 0, i32 0
  store double %106, ptr %108, align 8, !tbaa !52
  %109 = load ptr, ptr %6, align 8, !tbaa !41
  %110 = getelementptr inbounds nuw %"struct.(anonymous namespace)::pj_urm5", ptr %109, i32 0, i32 0
  %111 = load double, ptr %110, align 8, !tbaa !52
  %112 = load ptr, ptr %6, align 8, !tbaa !41
  %113 = getelementptr inbounds nuw %"struct.(anonymous namespace)::pj_urm5", ptr %112, i32 0, i32 3
  %114 = load double, ptr %113, align 8, !tbaa !47
  %115 = fmul double %111, %114
  %116 = fdiv double 1.000000e+00, %115
  %117 = load ptr, ptr %6, align 8, !tbaa !41
  %118 = getelementptr inbounds nuw %"struct.(anonymous namespace)::pj_urm5", ptr %117, i32 0, i32 1
  store double %116, ptr %118, align 8, !tbaa !53
  %119 = load ptr, ptr %3, align 8, !tbaa !3
  %120 = getelementptr inbounds nuw %struct.PJconsts, ptr %119, i32 0, i32 27
  store double 0.000000e+00, ptr %120, align 8, !tbaa !54
  %121 = load ptr, ptr %3, align 8, !tbaa !3
  %122 = getelementptr inbounds nuw %struct.PJconsts, ptr %121, i32 0, i32 14
  store ptr null, ptr %122, align 8, !tbaa !55
  %123 = load ptr, ptr %3, align 8, !tbaa !3
  %124 = getelementptr inbounds nuw %struct.PJconsts, ptr %123, i32 0, i32 13
  store ptr @_ZL14urm5_s_forward5PJ_LPP8PJconsts, ptr %124, align 8, !tbaa !56
  %125 = load ptr, ptr %3, align 8, !tbaa !3
  store ptr %125, ptr %2, align 8
  store i32 1, ptr %7, align 4
  br label %126

126:                                              ; preds = %102, %98
  call void @llvm.lifetime.end.p0(i64 8, ptr %12) #7
  br label %127

127:                                              ; preds = %126, %59, %34, %16
  call void @llvm.lifetime.end.p0(i64 8, ptr %6) #7
  call void @llvm.lifetime.end.p0(i64 8, ptr %5) #7
  call void @llvm.lifetime.end.p0(i64 8, ptr %4) #7
  %128 = load ptr, ptr %2, align 8
  ret ptr %128
}