; Function Attrs: mustprogress uwtable
define hidden noundef ptr @_Z33pj_projection_specific_setup_urm5P8PJconsts(ptr noundef %0) local_unnamed_addr #0 {
  %2 = tail call noalias dereferenceable_or_null(32) ptr @calloc(i64 noundef 1, i64 noundef 32) #5
  %3 = icmp eq ptr %2, null
  br i1 %3, label %4, label %6

4:                                                ; preds = %1
  %5 = tail call noundef ptr @_Z21pj_default_destructorP8PJconstsi(ptr noundef %0, i32 noundef 4096)
  br label %54

6:                                                ; preds = %1
  %7 = getelementptr inbounds nuw i8, ptr %0, i64 88
  store ptr %2, ptr %7, align 8, !tbaa !40
  %8 = load ptr, ptr %0, align 8, !tbaa !41
  %9 = getelementptr inbounds nuw i8, ptr %0, i64 24
  %10 = load ptr, ptr %9, align 8, !tbaa !42
  %11 = tail call i64 @_Z8pj_paramP6pj_ctxP8ARG_listPKc(ptr noundef %8, ptr noundef %10, ptr noundef nonnull @.str.1)
  %12 = and i64 %11, 4294967295
  %.not = icmp eq i64 %12, 0
  br i1 %.not, label %13, label %15

13:                                               ; preds = %6
  tail call void (ptr, ptr, ...) @_Z14proj_log_errorPK8PJconstsPKcz(ptr noundef nonnull %0, ptr noundef nonnull @.str.2)
  %14 = tail call noundef ptr @_Z21pj_default_destructorP8PJconstsi(ptr noundef nonnull %0, i32 noundef 1026)
  br label %54

15:                                               ; preds = %6
  %16 = load ptr, ptr %0, align 8, !tbaa !41
  %17 = load ptr, ptr %9, align 8, !tbaa !42
  %18 = tail call i64 @_Z8pj_paramP6pj_ctxP8ARG_listPKc(ptr noundef %16, ptr noundef %17, ptr noundef nonnull @.str.3)
  %19 = bitcast i64 %18 to double
  %20 = getelementptr inbounds nuw i8, ptr %2, i64 24
  store i64 %18, ptr %20, align 8, !tbaa !43
  %21 = fcmp ole double %19, 0.000000e+00
  %22 = fcmp ogt double %19, 1.000000e+00
  %or.cond = or i1 %21, %22
  br i1 %or.cond, label %23, label %25

23:                                               ; preds = %15
  tail call void (ptr, ptr, ...) @_Z14proj_log_errorPK8PJconstsPKcz(ptr noundef nonnull %0, ptr noundef nonnull @.str.4)
  %24 = tail call noundef ptr @_Z21pj_default_destructorP8PJconstsi(ptr noundef nonnull %0, i32 noundef 1027)
  br label %54

25:                                               ; preds = %15
  %26 = load ptr, ptr %0, align 8, !tbaa !41
  %27 = load ptr, ptr %9, align 8, !tbaa !42
  %28 = tail call i64 @_Z8pj_paramP6pj_ctxP8ARG_listPKc(ptr noundef %26, ptr noundef %27, ptr noundef nonnull @.str.5)
  %29 = bitcast i64 %28 to double
  %30 = fdiv double %29, 3.000000e+00
  %31 = getelementptr inbounds nuw i8, ptr %2, i64 16
  store double %30, ptr %31, align 8, !tbaa !45
  %32 = load ptr, ptr %0, align 8, !tbaa !41
  %33 = load ptr, ptr %9, align 8, !tbaa !42
  %34 = tail call i64 @_Z8pj_paramP6pj_ctxP8ARG_listPKc(ptr noundef %32, ptr noundef %33, ptr noundef nonnull @.str.6)
  %35 = bitcast i64 %34 to double
  %36 = load double, ptr %20, align 8, !tbaa !43
  %37 = tail call double @sin(double noundef %35) #6, !tbaa !46
  %38 = fmul double %36, %37
  %39 = fneg double %38
  %40 = tail call double @llvm.fmuladd.f64(double %39, double %38, double 1.000000e+00)
  %41 = tail call double @sqrt(double noundef %40) #6, !tbaa !46
  %42 = fcmp oeq double %41, 0.000000e+00
  br i1 %42, label %43, label %45

43:                                               ; preds = %25
  tail call void (ptr, ptr, ...) @_Z14proj_log_errorPK8PJconstsPKcz(ptr noundef nonnull %0, ptr noundef nonnull @.str.7)
  %44 = tail call noundef ptr @_Z21pj_default_destructorP8PJconstsi(ptr noundef nonnull %0, i32 noundef 1027)
  br label %54

45:                                               ; preds = %25
  %46 = tail call double @cos(double noundef %35) #6, !tbaa !46
  %47 = fdiv double %46, %41
  store double %47, ptr %2, align 8, !tbaa !47
  %48 = fmul double %36, %47
  %49 = fdiv double 1.000000e+00, %48
  %50 = getelementptr inbounds nuw i8, ptr %2, i64 8
  store double %49, ptr %50, align 8, !tbaa !48
  %51 = getelementptr inbounds nuw i8, ptr %0, i64 216
  store double 0.000000e+00, ptr %51, align 8, !tbaa !49
  %52 = getelementptr inbounds nuw i8, ptr %0, i64 112
  store ptr null, ptr %52, align 8, !tbaa !50
  %53 = getelementptr inbounds nuw i8, ptr %0, i64 104
  store ptr @_ZL14urm5_s_forward5PJ_LPP8PJconsts, ptr %53, align 8, !tbaa !51
  br label %54

54:                                               ; preds = %43, %45, %23, %13, %4
  %.0 = phi ptr [ %5, %4 ], [ %14, %13 ], [ %24, %23 ], [ %44, %43 ], [ %0, %45 ]
  ret ptr %.0
}